; Function Attrs: nounwind uwtable
define range(i32 -1, 1) i32 @H5B2__hdr_incr(ptr noundef %0) local_unnamed_addr #0 {
  %2 = getelementptr inbounds i8, ptr %0, i64 312
  %3 = load i64, ptr %2, align 8
  %4 = icmp eq i64 %3, 0
  br i1 %4, label %5, label %12

5:                                                ; preds = %1
  %6 = tail call i32 @H5AC_pin_protected_entry(ptr noundef nonnull %0) #4
  %7 = icmp slt i32 %6, 0
  br i1 %7, label %8, label %._crit_edge

._crit_edge:                                      ; preds = %5
  %.pre = load i64, ptr %2, align 8
  br label %12

8:                                                ; preds = %5
  %9 = load i64, ptr @H5E_BTREE_g, align 8
  %10 = load i64, ptr @H5E_CANTPIN_g, align 8
  %11 = tail call i32 (ptr, ptr, i32, i64, i64, ptr, ...) @H5E_printf_stack(ptr noundef nonnull @.str.1, ptr noundef nonnull @__func__.H5B2__hdr_incr, i32 noundef 354, i64 noundef %9, i64 noundef %10, ptr noundef nonnull @.str.17) #4
  br label %15

12:                                               ; preds = %._crit_edge, %1
  %13 = phi i64 [ %.pre, %._crit_edge ], [ %3, %1 ]
  %14 = add i64 %13, 1
  store i64 %14, ptr %2, align 8
  br label %15

15:                                               ; preds = %12, %8
  %.0 = phi i32 [ -1, %8 ], [ 0, %12 ]
  ret i32 %.0
}